target datalayout = "e-m:e-p270:32:32-p271:32:32-p272:64:64-i64:64-i128:128-f80:128-n8:16:32:64-S128"
target triple = "x86_64-pc-linux-gnu"

%"class.std::ios_base::Init" = type { i8 }
%struct.vec = type { double, double, double }

@_ZStL8__ioinit = internal global %"class.std::ios_base::Init" zeroinitializer, align 1
@__dso_handle = external hidden global i8
@llvm.global_ctors = appending global [1 x { i32, ptr, ptr }] [{ i32, ptr, ptr } { i32 65535, ptr @_GLOBAL__sub_I_geometry.cpp, ptr null }]

; Function Attrs: uwtable
define internal void @__cxx_global_var_init() #0 section ".text.startup" {
  call void @_ZNSt8ios_base4InitC1Ev(ptr noundef nonnull align 1 dereferenceable(1) @_ZStL8__ioinit)
  %1 = call i32 @__cxa_atexit(ptr @_ZNSt8ios_base4InitD1Ev, ptr @_ZStL8__ioinit, ptr @__dso_handle) #3
  ret void
}

declare void @_ZNSt8ios_base4InitC1Ev(ptr noundef nonnull align 1 dereferenceable(1)) unnamed_addr #1

; Function Attrs: nounwind
declare void @_ZNSt8ios_base4InitD1Ev(ptr noundef nonnull align 1 dereferenceable(1)) unnamed_addr #2

; Function Attrs: nounwind
declare i32 @__cxa_atexit(ptr, ptr, ptr) #3

; Function Attrs: mustprogress nounwind uwtable
define dso_local void @_Z5crossRK3vecILi3EES2_(ptr dead_on_unwind noalias writable sret(%struct.vec) align 8 %0, ptr noundef nonnull align 8 dereferenceable(24) %1, ptr noundef nonnull align 8 dereferenceable(24) %2) #4 {
  %4 = alloca ptr, align 8
  %5 = alloca ptr, align 8
  store ptr %1, ptr %4, align 8
  store ptr %2, ptr %5, align 8
  %6 = getelementptr inbounds %struct.vec, ptr %0, i32 0, i32 0
  %7 = load ptr, ptr %4, align 8
  %8 = getelementptr inbounds %struct.vec, ptr %7, i32 0, i32 1
  %9 = load double, ptr %8, align 8
  %10 = load ptr, ptr %5, align 8
  %11 = getelementptr inbounds %struct.vec, ptr %10, i32 0, i32 2
  %12 = load double, ptr %11, align 8
  %13 = load ptr, ptr %4, align 8
  %14 = getelementptr inbounds %struct.vec, ptr %13, i32 0, i32 2
  %15 = load double, ptr %14, align 8
  %16 = load ptr, ptr %5, align 8
  %17 = getelementptr inbounds %struct.vec, ptr %16, i32 0, i32 1
  %18 = load double, ptr %17, align 8
  %19 = fmul double %15, %18
  %20 = fneg double %19
  %21 = call double @llvm.fmuladd.f64(double %9, double %12, double %20)
  store double %21, ptr %6, align 8
  %22 = getelementptr inbounds %struct.vec, ptr %0, i32 0, i32 1
  %23 = load ptr, ptr %4, align 8
  %24 = getelementptr inbounds %struct.vec, ptr %23, i32 0, i32 2
  %25 = load double, ptr %24, align 8
  %26 = load ptr, ptr %5, align 8
  %27 = getelementptr inbounds %struct.vec, ptr %26, i32 0, i32 0
  %28 = load double, ptr %27, align 8
  %29 = load ptr, ptr %4, align 8
  %30 = getelementptr inbounds %struct.vec, ptr %29, i32 0, i32 0
  %31 = load double, ptr %30, align 8
  %32 = load ptr, ptr %5, align 8
  %33 = getelementptr inbounds %struct.vec, ptr %32, i32 0, i32 2
  %34 = load double, ptr %33, align 8
  %35 = fmul double %31, %34
  %36 = fneg double %35
  %37 = call double @llvm.fmuladd.f64(double %25, double %28, double %36)
  store double %37, ptr %22, align 8
  %38 = getelementptr inbounds %struct.vec, ptr %0, i32 0, i32 2
  %39 = load ptr, ptr %4, align 8
  %40 = getelementptr inbounds %struct.vec, ptr %39, i32 0, i32 0
  %41 = load double, ptr %40, align 8
  %42 = load ptr, ptr %5, align 8
  %43 = getelementptr inbounds %struct.vec, ptr %42, i32 0, i32 1
  %44 = load double, ptr %43, align 8
  %45 = load ptr, ptr %4, align 8
  %46 = getelementptr inbounds %struct.vec, ptr %45, i32 0, i32 1
  %47 = load double, ptr %46, align 8
  %48 = load ptr, ptr %5, align 8
  %49 = getelementptr inbounds %struct.vec, ptr %48, i32 0, i32 0
  %50 = load double, ptr %49, align 8
  %51 = fmul double %47, %50
  %52 = fneg double %51
  %53 = call double @llvm.fmuladd.f64(double %41, double %44, double %52)
  store double %53, ptr %38, align 8
  ret void
}

; Function Attrs: nocallback nofree nosync nounwind speculatable willreturn memory(none)
declare double @llvm.fmuladd.f64(double, double, double) #5

; Function Attrs: uwtable
define internal void @_GLOBAL__sub_I_geometry.cpp() #0 section ".text.startup" {
  call void @__cxx_global_var_init()
  ret void
}


!llvm.linker.options = !{}
!llvm.module.flags = !{!0, !1, !2, !3, !4, !5}

!0 = !{i32 1, !"wchar_size", i32 4}
!1 = !{i32 7, !"openmp", i32 51}
!2 = !{i32 8, !"PIC Level", i32 2}
!3 = !{i32 7, !"PIE Level", i32 2}
!4 = !{i32 7, !"uwtable", i32 2}
!5 = !{i32 7, !"frame-pointer", i32 2}
