; ModuleID = 'bench/tinyrenderer/original/geometry.cpp.ll'
source_filename = "bench/tinyrenderer/original/geometry.cpp.ll"
target datalayout = "e-m:e-p270:32:32-p271:32:32-p272:64:64-i64:64-i128:128-f80:128-n8:16:32:64-S128"
target triple = "x86_64-pc-linux-gnu"

%"class.std::ios_base::Init" = type { i8 }
%struct.vec = type { double, double, double }

@_ZStL8__ioinit = internal global %"class.std::ios_base::Init" zeroinitializer, align 1
@__dso_handle = external hidden global i8
@llvm.global_ctors = appending global [1 x { i32, ptr, ptr }] [{ i32, ptr, ptr } { i32 65535, ptr @_GLOBAL__sub_I_geometry.cpp, ptr null }]

declare void @_ZNSt8ios_base4InitC1Ev(ptr noundef nonnull align 1 dereferenceable(1)) unnamed_addr #0

; Function Attrs: nounwind
declare void @_ZNSt8ios_base4InitD1Ev(ptr noundef nonnull align 1 dereferenceable(1)) unnamed_addr #1

; Function Attrs: nofree nounwind
declare i32 @__cxa_atexit(ptr, ptr, ptr) local_unnamed_addr #2

; Function Attrs: mustprogress nofree norecurse nosync nounwind willreturn memory(argmem: readwrite) uwtable
define dso_local void @_Z5crossRK3vecILi3EES2_(ptr dead_on_unwind noalias nocapture writable writeonly sret(%struct.vec) align 8 %0, ptr nocapture noundef nonnull readonly align 8 dereferenceable(24) %1, ptr nocapture noundef nonnull readonly align 8 dereferenceable(24) %2) local_unnamed_addr #3 {
  %4 = getelementptr inbounds i8, ptr %1, i64 8
  %5 = getelementptr inbounds i8, ptr %2, i64 8
  %6 = load double, ptr %2, align 8
  %7 = load double, ptr %1, align 8
  %8 = load <2 x double>, ptr %4, align 8
  %9 = load <2 x double>, ptr %5, align 8
  %10 = shufflevector <2 x double> %8, <2 x double> poison, <2 x i32> <i32 1, i32 poison>
  %11 = insertelement <2 x double> %10, double %7, i64 1
  %12 = fneg <2 x double> %11
  %13 = fmul <2 x double> %9, %12
  %14 = shufflevector <2 x double> %9, <2 x double> poison, <2 x i32> <i32 1, i32 poison>
  %15 = insertelement <2 x double> %14, double %6, i64 1
  %16 = tail call <2 x double> @llvm.fmuladd.v2f64(<2 x double> %8, <2 x double> %15, <2 x double> %13)
  store <2 x double> %16, ptr %0, align 8
  %17 = getelementptr inbounds i8, ptr %0, i64 16
  %18 = extractelement <2 x double> %8, i64 0
  %19 = fneg double %18
  %20 = fmul double %6, %19
  %21 = extractelement <2 x double> %9, i64 0
  %22 = tail call double @llvm.fmuladd.f64(double %7, double %21, double %20)
  store double %22, ptr %17, align 8
  ret void
}

; Function Attrs: mustprogress nocallback nofree nosync nounwind speculatable willreturn memory(none)
declare double @llvm.fmuladd.f64(double, double, double) #4

; Function Attrs: uwtable
define internal void @_GLOBAL__sub_I_geometry.cpp() #5 section ".text.startup" {
  tail call void @_ZNSt8ios_base4InitC1Ev(ptr noundef nonnull align 1 dereferenceable(1) @_ZStL8__ioinit)
  %1 = tail call i32 @__cxa_atexit(ptr nonnull @_ZNSt8ios_base4InitD1Ev, ptr nonnull @_ZStL8__ioinit, ptr nonnull @__dso_handle) #7
  ret void
}

; Function Attrs: nocallback nofree nosync nounwind speculatable willreturn memory(none)
declare <2 x double> @llvm.fmuladd.v2f64(<2 x double>, <2 x double>, <2 x double>) #6


!llvm.linker.options = !{}
!llvm.module.flags = !{!0, !1, !2, !3, !4, !5}

!0 = !{i32 1, !"wchar_size", i32 4}
!1 = !{i32 7, !"openmp", i32 51}
!2 = !{i32 8, !"PIC Level", i32 2}
!3 = !{i32 7, !"PIE Level", i32 2}
!4 = !{i32 7, !"uwtable", i32 2}
!5 = !{i32 7, !"frame-pointer", i32 2}
